; Function Attrs: mustprogress nofree nounwind uwtable
define dso_local void @_ZN7Cleaner6ReportERKNSt7__cxx1112basic_stringIcSt11char_traitsIcESaIcEEE(ptr noundef nonnull align 8 captures(none) dereferenceable(156) %0, ptr noundef nonnull readonly align 8 captures(none) dereferenceable(32) %1) local_unnamed_addr #4 align 2 {
  %3 = getelementptr inbounds nuw i8, ptr %0, i64 136
  %4 = load i32, ptr %3, align 8, !tbaa !40
  %5 = add nsw i32 %4, 1
  store i32 %5, ptr %3, align 8, !tbaa !40
  %6 = getelementptr inbounds nuw i8, ptr %0, i64 8
  %7 = load ptr, ptr %6, align 8, !tbaa !52
  %8 = load i32, ptr %7, align 8, !tbaa !53
  switch i32 %8, label %_ZNK7Cleaner9IsVerboseEv.exit [
    i32 0, label %_ZNK7Cleaner9IsVerboseEv.exit.thread2
    i32 3, label %_ZNK7Cleaner9IsVerboseEv.exit.thread
  ]

_ZNK7Cleaner9IsVerboseEv.exit:                    ; preds = %2
  %9 = getelementptr inbounds nuw i8, ptr %7, i64 4
  %10 = load i8, ptr %9, align 4, !tbaa !59, !range !60, !noundef !61
  %11 = trunc nuw i8 %10 to i1
  br i1 %11, label %_ZNK7Cleaner9IsVerboseEv.exit.thread, label %_ZNK7Cleaner9IsVerboseEv.exit.thread2

_ZNK7Cleaner9IsVerboseEv.exit.thread:             ; preds = %2, %_ZNK7Cleaner9IsVerboseEv.exit
  %12 = load ptr, ptr %1, align 8, !tbaa !51
  %13 = tail call i32 (ptr, ...) @printf(ptr noundef nonnull dereferenceable(1) @.str.1, ptr noundef %12)
  br label %_ZNK7Cleaner9IsVerboseEv.exit.thread2

_ZNK7Cleaner9IsVerboseEv.exit.thread2:            ; preds = %2, %_ZNK7Cleaner9IsVerboseEv.exit.thread, %_ZNK7Cleaner9IsVerboseEv.exit
  ret void
}